; Function Attrs: nounwind uwtable
define internal i64 @mem_seek(ptr noundef captures(none) %0, i64 noundef %1, i32 noundef %2) #0 {
  switch i32 %2, label %8 [
    i32 0, label %10
    i32 1, label %4
    i32 2, label %6
  ]

4:                                                ; preds = %3
  %5 = getelementptr inbounds nuw i8, ptr %0, i64 8
  br label %10

6:                                                ; preds = %3
  %7 = getelementptr inbounds nuw i8, ptr %0, i64 16
  br label %10

8:                                                ; preds = %3
  %9 = tail call zeroext i1 (ptr, ...) @SDL_SetError_REAL(ptr noundef nonnull @.str.19) #18
  br label %21

10:                                               ; preds = %3, %6, %4
  %.sink.in = phi ptr [ %7, %6 ], [ %5, %4 ], [ %0, %3 ]
  %.sink = load ptr, ptr %.sink.in, align 8
  %11 = getelementptr inbounds i8, ptr %.sink, i64 %1
  %12 = load ptr, ptr %0, align 8
  %13 = icmp ult ptr %11, %12
  %spec.select = select i1 %13, ptr %12, ptr %11
  %14 = getelementptr inbounds nuw i8, ptr %0, i64 16
  %15 = load ptr, ptr %14, align 8
  %16 = icmp ugt ptr %spec.select, %15
  %.2 = select i1 %16, ptr %15, ptr %spec.select
  %17 = getelementptr inbounds nuw i8, ptr %0, i64 8
  store ptr %.2, ptr %17, align 8
  %18 = ptrtoint ptr %.2 to i64
  %19 = ptrtoint ptr %12 to i64
  %20 = sub i64 %18, %19
  br label %21

21:                                               ; preds = %10, %8
  %.018 = phi i64 [ -1, %8 ], [ %20, %10 ]
  ret i64 %.018
}